target datalayout = "e-m:e-p270:32:32-p271:32:32-p272:64:64-i64:64-i128:128-f80:128-n8:16:32:64-S128"
target triple = "x86_64-pc-linux-gnu"

%struct.archive_read_filter_vtable = type { ptr, ptr, ptr }
%struct.archive_read_filter = type { i64, ptr, ptr, ptr, ptr, ptr, ptr, i32, i32, i32, ptr, i64, ptr, i64, ptr, i64, ptr, i64, i8, i8, i8 }
%struct.archive_read = type { %struct.archive, ptr, i32, i64, i64, %struct.archive_read_client, [16 x %struct.archive_read_filter_bidder], ptr, i32, i64, i32, i32, [16 x %struct.archive_format_descriptor], ptr, ptr, ptr, %struct.anon }
%struct.archive = type { i32, i32, ptr, i32, ptr, i32, i32, ptr, %struct.archive_string, ptr, i32, i32, ptr, ptr, i64, i64, i64, i8, i64 }
%struct.archive_string = type { ptr, i64, i64 }
%struct.archive_read_client = type { ptr, ptr, ptr, ptr, ptr, ptr, i32, i32, i64, ptr }
%struct.archive_read_filter_bidder = type { ptr, ptr, ptr }
%struct.archive_format_descriptor = type { ptr, ptr, ptr, ptr, ptr, ptr, ptr, ptr, ptr, ptr, ptr }
%struct.anon = type { ptr, ptr, i32, ptr, ptr }
%struct.private_data = type { %struct.lzma_stream, ptr, i64, i64, i8, i8, i8, i32, i64, i64 }
%struct.lzma_stream = type { ptr, i64, i64, ptr, i64, i64, ptr, ptr, ptr, ptr, ptr, ptr, i64, i64, i64, i64, i32, i32 }

@.str.4 = private unnamed_addr constant [41 x i8] c"Can't allocate data for xz decompression\00", align 1
@xz_lzma_reader_vtable = internal constant %struct.archive_read_filter_vtable { ptr @xz_filter_read, ptr @xz_filter_close, ptr null }, align 8

; Function Attrs: nounwind uwtable
define internal i32 @xz_lzma_bidder_init(ptr noundef %0) #0 {
  %2 = alloca i32, align 4
  %3 = alloca ptr, align 8
  %4 = alloca ptr, align 8
  %5 = alloca ptr, align 8
  %6 = alloca i32, align 4
  %7 = alloca i32, align 4
  store ptr %0, ptr %3, align 8, !tbaa !13
  call void @llvm.lifetime.start.p0(i64 8, ptr %4) #8
  call void @llvm.lifetime.start.p0(i64 8, ptr %5) #8
  call void @llvm.lifetime.start.p0(i64 4, ptr %6) #8
  %8 = call noalias ptr @calloc(i64 noundef 1, i64 noundef 184) #10
  store ptr %8, ptr %5, align 8, !tbaa !23
  %9 = call noalias ptr @malloc(i64 noundef 65536) #11
  store ptr %9, ptr %4, align 8, !tbaa !25
  %10 = load ptr, ptr %5, align 8, !tbaa !23
  %11 = icmp eq ptr %10, null
  br i1 %11, label %15, label %12

12:                                               ; preds = %1
  %13 = load ptr, ptr %4, align 8, !tbaa !25
  %14 = icmp eq ptr %13, null
  br i1 %14, label %15, label %22

15:                                               ; preds = %12, %1
  %16 = load ptr, ptr %3, align 8, !tbaa !13
  %17 = getelementptr inbounds nuw %struct.archive_read_filter, ptr %16, i32 0, i32 3
  %18 = load ptr, ptr %17, align 8, !tbaa !26
  %19 = getelementptr inbounds nuw %struct.archive_read, ptr %18, i32 0, i32 0
  call void (ptr, i32, ptr, ...) @archive_set_error(ptr noundef %19, i32 noundef 12, ptr noundef @.str.4)
  %20 = load ptr, ptr %4, align 8, !tbaa !25
  call void @free(ptr noundef %20) #8
  %21 = load ptr, ptr %5, align 8, !tbaa !23
  call void @free(ptr noundef %21) #8
  store i32 -30, ptr %2, align 4
  store i32 1, ptr %7, align 4
  br label %86

22:                                               ; preds = %12
  %23 = load ptr, ptr %5, align 8, !tbaa !23
  %24 = load ptr, ptr %3, align 8, !tbaa !13
  %25 = getelementptr inbounds nuw %struct.archive_read_filter, ptr %24, i32 0, i32 5
  store ptr %23, ptr %25, align 8, !tbaa !27
  %26 = load ptr, ptr %5, align 8, !tbaa !23
  %27 = getelementptr inbounds nuw %struct.private_data, ptr %26, i32 0, i32 2
  store i64 65536, ptr %27, align 8, !tbaa !28
  %28 = load ptr, ptr %4, align 8, !tbaa !25
  %29 = load ptr, ptr %5, align 8, !tbaa !23
  %30 = getelementptr inbounds nuw %struct.private_data, ptr %29, i32 0, i32 1
  store ptr %28, ptr %30, align 8, !tbaa !32
  %31 = load ptr, ptr %3, align 8, !tbaa !13
  %32 = getelementptr inbounds nuw %struct.archive_read_filter, ptr %31, i32 0, i32 4
  store ptr @xz_lzma_reader_vtable, ptr %32, align 8, !tbaa !33
  %33 = load ptr, ptr %5, align 8, !tbaa !23
  %34 = getelementptr inbounds nuw %struct.private_data, ptr %33, i32 0, i32 0
  %35 = getelementptr inbounds nuw %struct.lzma_stream, ptr %34, i32 0, i32 1
  store i64 0, ptr %35, align 8, !tbaa !34
  %36 = load ptr, ptr %5, align 8, !tbaa !23
  %37 = getelementptr inbounds nuw %struct.private_data, ptr %36, i32 0, i32 1
  %38 = load ptr, ptr %37, align 8, !tbaa !32
  %39 = load ptr, ptr %5, align 8, !tbaa !23
  %40 = getelementptr inbounds nuw %struct.private_data, ptr %39, i32 0, i32 0
  %41 = getelementptr inbounds nuw %struct.lzma_stream, ptr %40, i32 0, i32 3
  store ptr %38, ptr %41, align 8, !tbaa !35
  %42 = load ptr, ptr %5, align 8, !tbaa !23
  %43 = getelementptr inbounds nuw %struct.private_data, ptr %42, i32 0, i32 2
  %44 = load i64, ptr %43, align 8, !tbaa !28
  %45 = load ptr, ptr %5, align 8, !tbaa !23
  %46 = getelementptr inbounds nuw %struct.private_data, ptr %45, i32 0, i32 0
  %47 = getelementptr inbounds nuw %struct.lzma_stream, ptr %46, i32 0, i32 4
  store i64 %44, ptr %47, align 8, !tbaa !36
  %48 = load ptr, ptr %5, align 8, !tbaa !23
  %49 = getelementptr inbounds nuw %struct.private_data, ptr %48, i32 0, i32 7
  store i32 0, ptr %49, align 4, !tbaa !37
  %50 = load ptr, ptr %3, align 8, !tbaa !13
  %51 = getelementptr inbounds nuw %struct.archive_read_filter, ptr %50, i32 0, i32 7
  %52 = load i32, ptr %51, align 8, !tbaa !17
  %53 = icmp eq i32 %52, 9
  br i1 %53, label %54, label %57

54:                                               ; preds = %22
  %55 = load ptr, ptr %5, align 8, !tbaa !23
  %56 = getelementptr inbounds nuw %struct.private_data, ptr %55, i32 0, i32 5
  store i8 0, ptr %56, align 1, !tbaa !38
  store i32 0, ptr %2, align 4
  store i32 1, ptr %7, align 4
  br label %86

57:                                               ; preds = %22
  %58 = load ptr, ptr %5, align 8, !tbaa !23
  %59 = getelementptr inbounds nuw %struct.private_data, ptr %58, i32 0, i32 5
  store i8 1, ptr %59, align 1, !tbaa !38
  br label %60

60:                                               ; preds = %57
  %61 = load ptr, ptr %3, align 8, !tbaa !13
  %62 = getelementptr inbounds nuw %struct.archive_read_filter, ptr %61, i32 0, i32 7
  %63 = load i32, ptr %62, align 8, !tbaa !17
  %64 = icmp eq i32 %63, 6
  br i1 %64, label %65, label %69

65:                                               ; preds = %60
  %66 = load ptr, ptr %5, align 8, !tbaa !23
  %67 = getelementptr inbounds nuw %struct.private_data, ptr %66, i32 0, i32 0
  %68 = call i32 @lzma_stream_decoder(ptr noundef %67, i64 noundef -1, i32 noundef 8) #8
  store i32 %68, ptr %6, align 4, !tbaa !39
  br label %73

69:                                               ; preds = %60
  %70 = load ptr, ptr %5, align 8, !tbaa !23
  %71 = getelementptr inbounds nuw %struct.private_data, ptr %70, i32 0, i32 0
  %72 = call i32 @lzma_alone_decoder(ptr noundef %71, i64 noundef -1) #8
  store i32 %72, ptr %6, align 4, !tbaa !39
  br label %73

73:                                               ; preds = %69, %65
  %74 = load i32, ptr %6, align 4, !tbaa !39
  %75 = icmp eq i32 %74, 0
  br i1 %75, label %76, label %77

76:                                               ; preds = %73
  store i32 0, ptr %2, align 4
  store i32 1, ptr %7, align 4
  br label %86

77:                                               ; preds = %73
  %78 = load ptr, ptr %3, align 8, !tbaa !13
  %79 = load i32, ptr %6, align 4, !tbaa !39
  call void @set_error(ptr noundef %78, i32 noundef %79)
  %80 = load ptr, ptr %5, align 8, !tbaa !23
  %81 = getelementptr inbounds nuw %struct.private_data, ptr %80, i32 0, i32 1
  %82 = load ptr, ptr %81, align 8, !tbaa !32
  call void @free(ptr noundef %82) #8
  %83 = load ptr, ptr %5, align 8, !tbaa !23
  call void @free(ptr noundef %83) #8
  %84 = load ptr, ptr %3, align 8, !tbaa !13
  %85 = getelementptr inbounds nuw %struct.archive_read_filter, ptr %84, i32 0, i32 5
  store ptr null, ptr %85, align 8, !tbaa !27
  store i32 -30, ptr %2, align 4
  store i32 1, ptr %7, align 4
  br label %86

86:                                               ; preds = %77, %76, %54, %15
  call void @llvm.lifetime.end.p0(i64 4, ptr %6) #8
  call void @llvm.lifetime.end.p0(i64 8, ptr %5) #8
  call void @llvm.lifetime.end.p0(i64 8, ptr %4) #8
  %87 = load i32, ptr %2, align 4
  ret i32 %87
}