; Function Attrs: nounwind uwtable
define internal fastcc range(i32 -30, 1) i32 @xz_lzma_bidder_init(ptr noundef captures(none) %0) unnamed_addr #0 {
  %2 = tail call noalias dereferenceable_or_null(184) ptr @calloc(i64 noundef 1, i64 noundef 184) #11
  %3 = tail call noalias dereferenceable_or_null(65536) ptr @malloc(i64 noundef 65536) #12
  %4 = icmp eq ptr %2, null
  %5 = icmp eq ptr %3, null
  %or.cond = or i1 %4, %5
  br i1 %or.cond, label %6, label %9

6:                                                ; preds = %1
  %7 = getelementptr inbounds nuw i8, ptr %0, i64 24
  %8 = load ptr, ptr %7, align 8, !tbaa !17
  tail call void (ptr, i32, ptr, ...) @archive_set_error(ptr noundef %8, i32 noundef 12, ptr noundef nonnull @.str.4) #10
  tail call void @free(ptr noundef %3) #10
  tail call void @free(ptr noundef %2) #10
  br label %30

9:                                                ; preds = %1
  %10 = getelementptr inbounds nuw i8, ptr %0, i64 40
  store ptr %2, ptr %10, align 8, !tbaa !18
  %11 = getelementptr inbounds nuw i8, ptr %2, i64 144
  store i64 65536, ptr %11, align 8, !tbaa !19
  %12 = getelementptr inbounds nuw i8, ptr %2, i64 136
  store ptr %3, ptr %12, align 8, !tbaa !23
  %13 = getelementptr inbounds nuw i8, ptr %0, i64 32
  store ptr @xz_lzma_reader_vtable, ptr %13, align 8, !tbaa !24
  %14 = getelementptr inbounds nuw i8, ptr %2, i64 24
  store ptr %3, ptr %14, align 8, !tbaa !25
  %15 = getelementptr inbounds nuw i8, ptr %2, i64 32
  store i64 65536, ptr %15, align 8, !tbaa !26
  %16 = getelementptr inbounds nuw i8, ptr %0, i64 56
  %17 = load i32, ptr %16, align 8, !tbaa !4
  %18 = icmp eq i32 %17, 9
  br i1 %18, label %30, label %19

19:                                               ; preds = %9
  %20 = getelementptr inbounds nuw i8, ptr %2, i64 161
  store i8 1, ptr %20, align 1, !tbaa !27
  %21 = icmp eq i32 %17, 6
  br i1 %21, label %22, label %24

22:                                               ; preds = %19
  %23 = tail call i32 @lzma_stream_decoder(ptr noundef nonnull %2, i64 noundef -1, i32 noundef 8) #10
  br label %26

24:                                               ; preds = %19
  %25 = tail call i32 @lzma_alone_decoder(ptr noundef nonnull %2, i64 noundef -1) #10
  br label %26

26:                                               ; preds = %24, %22
  %.0 = phi i32 [ %23, %22 ], [ %25, %24 ]
  %27 = icmp eq i32 %.0, 0
  br i1 %27, label %30, label %28

28:                                               ; preds = %26
  tail call fastcc void @set_error(ptr noundef nonnull %0, i32 noundef %.0)
  %29 = load ptr, ptr %12, align 8, !tbaa !23
  tail call void @free(ptr noundef %29) #10
  tail call void @free(ptr noundef nonnull %2) #10
  store ptr null, ptr %10, align 8, !tbaa !18
  br label %30

30:                                               ; preds = %9, %26, %28, %6
  %.030 = phi i32 [ -30, %6 ], [ -30, %28 ], [ 0, %26 ], [ 0, %9 ]
  ret i32 %.030
}